; ModuleID = 'source-C-CXX/29/1839.c'
source_filename = "source-C-CXX/29/1839.c"
target datalayout = "e-m:e-p270:32:32-p271:32:32-p272:64:64-i64:64-f80:128-n8:16:32:64-S128"
target triple = "x86_64-pc-linux-gnu"

@.str = private unnamed_addr constant [3 x i8] c"%d\00", align 1

; Function Attrs: nofree nounwind sspstrong uwtable
define dso_local i32 @main() local_unnamed_addr #0 {
  %1 = alloca i32, align 4
  %2 = bitcast i32* %1 to i8*
  call void @llvm.lifetime.start.p0i8(i64 4, i8* nonnull %2) #3
  %3 = call i32 (i8*, ...) @__isoc99_scanf(i8* getelementptr inbounds ([3 x i8], [3 x i8]* @.str, i64 0, i64 0), i32* nonnull %1)
  %4 = load i32, i32* %1, align 4, !tbaa !5
  %5 = icmp slt i32 %4, 1
  br i1 %5, label %36, label %6

6:                                                ; preds = %0
  %7 = and i32 %4, 1
  %8 = icmp eq i32 %4, 1
  br i1 %8, label %24, label %9

9:                                                ; preds = %6
  %10 = and i32 %4, -2
  br label %11

11:                                               ; preds = %45, %9
  %12 = phi i32 [ 0, %9 ], [ %46, %45 ]
  %13 = phi i32 [ 1, %9 ], [ %47, %45 ]
  %14 = phi i32 [ %10, %9 ], [ %48, %45 ]
  switch i32 %13, label %15 [
    i32 17, label %21
    i32 27, label %21
    i32 37, label %21
    i32 47, label %21
    i32 57, label %21
    i32 67, label %21
    i32 87, label %21
    i32 97, label %21
    i32 71, label %21
    i32 72, label %21
    i32 73, label %21
    i32 74, label %21
    i32 75, label %21
    i32 76, label %21
    i32 78, label %21
    i32 79, label %21
  ]

15:                                               ; preds = %11
  %16 = urem i32 %13, 7
  %17 = icmp eq i32 %16, 0
  br i1 %17, label %21, label %18

18:                                               ; preds = %15
  %19 = mul nsw i32 %13, %13
  %20 = add nsw i32 %12, %19
  br label %21

21:                                               ; preds = %18, %15, %11, %11, %11, %11, %11, %11, %11, %11, %11, %11, %11, %11, %11, %11, %11, %11
  %22 = phi i32 [ %20, %18 ], [ %12, %15 ], [ %12, %11 ], [ %12, %11 ], [ %12, %11 ], [ %12, %11 ], [ %12, %11 ], [ %12, %11 ], [ %12, %11 ], [ %12, %11 ], [ %12, %11 ], [ %12, %11 ], [ %12, %11 ], [ %12, %11 ], [ %12, %11 ], [ %12, %11 ], [ %12, %11 ], [ %12, %11 ]
  %23 = add nuw i32 %13, 1
  switch i32 %13, label %39 [
    i32 16, label %45
    i32 26, label %45
    i32 36, label %45
    i32 46, label %45
    i32 56, label %45
    i32 66, label %45
    i32 86, label %45
    i32 96, label %45
    i32 70, label %45
    i32 71, label %45
    i32 72, label %45
    i32 73, label %45
    i32 74, label %45
    i32 75, label %45
    i32 77, label %45
    i32 78, label %45
  ]

24:                                               ; preds = %45, %6
  %25 = phi i32 [ undef, %6 ], [ %46, %45 ]
  %26 = phi i32 [ 0, %6 ], [ %46, %45 ]
  %27 = phi i32 [ 1, %6 ], [ %47, %45 ]
  %28 = icmp eq i32 %7, 0
  br i1 %28, label %36, label %29

29:                                               ; preds = %24
  switch i32 %27, label %30 [
    i32 17, label %36
    i32 27, label %36
    i32 37, label %36
    i32 47, label %36
    i32 57, label %36
    i32 67, label %36
    i32 87, label %36
    i32 97, label %36
    i32 71, label %36
    i32 72, label %36
    i32 73, label %36
    i32 74, label %36
    i32 75, label %36
    i32 76, label %36
    i32 78, label %36
    i32 79, label %36
  ]

30:                                               ; preds = %29
  %31 = urem i32 %27, 7
  %32 = icmp eq i32 %31, 0
  br i1 %32, label %36, label %33

33:                                               ; preds = %30
  %34 = mul nsw i32 %27, %27
  %35 = add nsw i32 %26, %34
  br label %36

36:                                               ; preds = %24, %29, %29, %29, %29, %29, %29, %29, %29, %29, %29, %29, %29, %29, %29, %29, %29, %30, %33, %0
  %37 = phi i32 [ 0, %0 ], [ %25, %24 ], [ %35, %33 ], [ %26, %30 ], [ %26, %29 ], [ %26, %29 ], [ %26, %29 ], [ %26, %29 ], [ %26, %29 ], [ %26, %29 ], [ %26, %29 ], [ %26, %29 ], [ %26, %29 ], [ %26, %29 ], [ %26, %29 ], [ %26, %29 ], [ %26, %29 ], [ %26, %29 ], [ %26, %29 ], [ %26, %29 ]
  %38 = call i32 (i8*, ...) @printf(i8* nonnull dereferenceable(1) getelementptr inbounds ([3 x i8], [3 x i8]* @.str, i64 0, i64 0), i32 %37)
  call void @llvm.lifetime.end.p0i8(i64 4, i8* nonnull %2) #3
  ret i32 0

39:                                               ; preds = %21
  %40 = urem i32 %23, 7
  %41 = icmp eq i32 %40, 0
  br i1 %41, label %45, label %42

42:                                               ; preds = %39
  %43 = mul nsw i32 %23, %23
  %44 = add nsw i32 %22, %43
  br label %45

45:                                               ; preds = %42, %39, %21, %21, %21, %21, %21, %21, %21, %21, %21, %21, %21, %21, %21, %21, %21, %21
  %46 = phi i32 [ %44, %42 ], [ %22, %39 ], [ %22, %21 ], [ %22, %21 ], [ %22, %21 ], [ %22, %21 ], [ %22, %21 ], [ %22, %21 ], [ %22, %21 ], [ %22, %21 ], [ %22, %21 ], [ %22, %21 ], [ %22, %21 ], [ %22, %21 ], [ %22, %21 ], [ %22, %21 ], [ %22, %21 ], [ %22, %21 ]
  %47 = add nuw i32 %13, 2
  %48 = add i32 %14, -2
  %49 = icmp eq i32 %48, 0
  br i1 %49, label %24, label %11, !llvm.loop !9
}

; Function Attrs: argmemonly mustprogress nofree nosync nounwind willreturn
declare void @llvm.lifetime.start.p0i8(i64 immarg, i8* nocapture) #1

; Function Attrs: nofree nounwind
declare noundef i32 @__isoc99_scanf(i8* nocapture noundef readonly, ...) local_unnamed_addr #2

; Function Attrs: nofree nounwind
declare noundef i32 @printf(i8* nocapture noundef readonly, ...) local_unnamed_addr #2

; Function Attrs: argmemonly mustprogress nofree nosync nounwind willreturn
declare void @llvm.lifetime.end.p0i8(i64 immarg, i8* nocapture) #1


!llvm.module.flags = !{!0, !1, !2, !3}
!llvm.ident = !{!4}

!0 = !{i32 1, !"wchar_size", i32 4}
!1 = !{i32 7, !"PIC Level", i32 2}
!2 = !{i32 7, !"PIE Level", i32 2}
!3 = !{i32 7, !"uwtable", i32 1}
!4 = !{!"clang version 13.0.0"}
!5 = !{!6, !6, i64 0}
!6 = !{!"int", !7, i64 0}
!7 = !{!"omnipotent char", !8, i64 0}
!8 = !{!"Simple C/C++ TBAA"}
!9 = distinct !{!9, !10}
!10 = !{!"llvm.loop.mustprogress"}
